target datalayout = "e-m:e-p270:32:32-p271:32:32-p272:64:64-i64:64-i128:128-f80:128-n8:16:32:64-S128"
target triple = "x86_64-pc-linux-gnu"

%"class.std::__cxx11::basic_string" = type { %"struct.std::__cxx11::basic_string<char>::_Alloc_hider", i64, %union.anon }
%"struct.std::__cxx11::basic_string<char>::_Alloc_hider" = type { ptr }
%union.anon = type { i64, [8 x i8] }
%"class.std::allocator" = type { i8 }
%"class.clang::RISCV::Policy" = type { i32, i32 }
%class.anon.59 = type { ptr, ptr, ptr }

@.str.53 = private unnamed_addr constant [4 x i8] c"_rm\00", align 1
@.str.54 = private unnamed_addr constant [6 x i8] c"_tumu\00", align 1
@.str.55 = private unnamed_addr constant [5 x i8] c"_tum\00", align 1
@.str.56 = private unnamed_addr constant [4 x i8] c"_mu\00", align 1
@.str.57 = private unnamed_addr constant [3 x i8] c"_m\00", align 1
@.str.58 = private unnamed_addr constant [4 x i8] c"_tu\00", align 1
@.str.66 = private unnamed_addr constant [50 x i8] c"basic_string: construction from null is not valid\00", align 1

; Function Attrs: mustprogress nounwind uwtable
define linkonce_odr hidden noundef i64 @_ZNSt11char_traitsIcE6lengthEPKc(ptr noundef %0) #0 comdat align 2 {
  %2 = alloca ptr, align 8
  store ptr %0, ptr %2, align 8
  %3 = load ptr, ptr %2, align 8
  %4 = call i64 @strlen(ptr noundef %3) #11
  ret i64 %4
}

; Function Attrs: mustprogress nounwind uwtable
define linkonce_odr hidden noundef zeroext i1 @_ZNK5clang5RISCV6Policy10isTAPolicyEv(ptr noundef nonnull align 4 dereferenceable(8) %0) #0 comdat align 2 {
  %2 = alloca ptr, align 8
  store ptr %0, ptr %2, align 8
  %3 = load ptr, ptr %2, align 8
  %4 = getelementptr inbounds nuw %"class.clang::RISCV::Policy", ptr %3, i32 0, i32 0
  %5 = load i32, ptr %4, align 4
  %6 = icmp eq i32 %5, 1
  ret i1 %6
}

; Function Attrs: mustprogress nounwind uwtable
define linkonce_odr hidden noundef zeroext i1 @_ZNK5clang5RISCV6Policy10isTUPolicyEv(ptr noundef nonnull align 4 dereferenceable(8) %0) #0 comdat align 2 {
  %2 = alloca ptr, align 8
  store ptr %0, ptr %2, align 8
  %3 = load ptr, ptr %2, align 8
  %4 = getelementptr inbounds nuw %"class.clang::RISCV::Policy", ptr %3, i32 0, i32 0
  %5 = load i32, ptr %4, align 4
  %6 = icmp eq i32 %5, 0
  ret i1 %6
}

; Function Attrs: mustprogress nounwind uwtable
define linkonce_odr hidden noundef zeroext i1 @_ZNK5clang5RISCV6Policy12isTAMAPolicyEv(ptr noundef nonnull align 4 dereferenceable(8) %0) #0 comdat align 2 {
  %2 = alloca ptr, align 8
  store ptr %0, ptr %2, align 8
  %3 = load ptr, ptr %2, align 8
  %4 = getelementptr inbounds nuw %"class.clang::RISCV::Policy", ptr %3, i32 0, i32 0
  %5 = load i32, ptr %4, align 4
  %6 = icmp eq i32 %5, 1
  br i1 %6, label %7, label %11

7:                                                ; preds = %1
  %8 = getelementptr inbounds nuw %"class.clang::RISCV::Policy", ptr %3, i32 0, i32 1
  %9 = load i32, ptr %8, align 4
  %10 = icmp eq i32 %9, 1
  br label %11

11:                                               ; preds = %7, %1
  %12 = phi i1 [ false, %1 ], [ %10, %7 ]
  ret i1 %12
}

; Function Attrs: mustprogress nounwind uwtable
define linkonce_odr hidden noundef zeroext i1 @_ZNK5clang5RISCV6Policy12isTAMUPolicyEv(ptr noundef nonnull align 4 dereferenceable(8) %0) #0 comdat align 2 {
  %2 = alloca ptr, align 8
  store ptr %0, ptr %2, align 8
  %3 = load ptr, ptr %2, align 8
  %4 = getelementptr inbounds nuw %"class.clang::RISCV::Policy", ptr %3, i32 0, i32 0
  %5 = load i32, ptr %4, align 4
  %6 = icmp eq i32 %5, 1
  br i1 %6, label %7, label %11

7:                                                ; preds = %1
  %8 = getelementptr inbounds nuw %"class.clang::RISCV::Policy", ptr %3, i32 0, i32 1
  %9 = load i32, ptr %8, align 4
  %10 = icmp eq i32 %9, 0
  br label %11

11:                                               ; preds = %7, %1
  %12 = phi i1 [ false, %1 ], [ %10, %7 ]
  ret i1 %12
}

; Function Attrs: mustprogress nounwind uwtable
define linkonce_odr hidden noundef zeroext i1 @_ZNK5clang5RISCV6Policy12isTUMAPolicyEv(ptr noundef nonnull align 4 dereferenceable(8) %0) #0 comdat align 2 {
  %2 = alloca ptr, align 8
  store ptr %0, ptr %2, align 8
  %3 = load ptr, ptr %2, align 8
  %4 = getelementptr inbounds nuw %"class.clang::RISCV::Policy", ptr %3, i32 0, i32 0
  %5 = load i32, ptr %4, align 4
  %6 = icmp eq i32 %5, 0
  br i1 %6, label %7, label %11

7:                                                ; preds = %1
  %8 = getelementptr inbounds nuw %"class.clang::RISCV::Policy", ptr %3, i32 0, i32 1
  %9 = load i32, ptr %8, align 4
  %10 = icmp eq i32 %9, 1
  br label %11

11:                                               ; preds = %7, %1
  %12 = phi i1 [ false, %1 ], [ %10, %7 ]
  ret i1 %12
}

; Function Attrs: mustprogress nounwind uwtable
define internal void @"_ZZN5clang5RISCV12RVVIntrinsic20updateNamesAndPolicyEbbRNSt7__cxx1112basic_stringIcSt11char_traitsIcESaIcEEES8_S8_RNS0_6PolicyEbENK3$_0clERKS7_"(ptr noundef nonnull align 8 dereferenceable(24) %0, ptr noundef nonnull align 8 dereferenceable(32) %1) #0 align 2 {
  %3 = alloca ptr, align 8
  %4 = alloca ptr, align 8
  store ptr %0, ptr %3, align 8
  store ptr %1, ptr %4, align 8
  %5 = load ptr, ptr %3, align 8
  %6 = load ptr, ptr %4, align 8
  %7 = getelementptr inbounds nuw %class.anon.59, ptr %5, i32 0, i32 0
  %8 = load ptr, ptr %7, align 8
  %9 = call noundef nonnull align 8 dereferenceable(32) ptr @_ZNSt7__cxx1112basic_stringIcSt11char_traitsIcESaIcEEpLERKS4_(ptr noundef nonnull align 8 dereferenceable(32) %8, ptr noundef nonnull align 8 dereferenceable(32) %6)
  %10 = load ptr, ptr %4, align 8
  %11 = getelementptr inbounds nuw %class.anon.59, ptr %5, i32 0, i32 1
  %12 = load ptr, ptr %11, align 8
  %13 = call noundef nonnull align 8 dereferenceable(32) ptr @_ZNSt7__cxx1112basic_stringIcSt11char_traitsIcESaIcEEpLERKS4_(ptr noundef nonnull align 8 dereferenceable(32) %12, ptr noundef nonnull align 8 dereferenceable(32) %10)
  %14 = load ptr, ptr %4, align 8
  %15 = getelementptr inbounds nuw %class.anon.59, ptr %5, i32 0, i32 2
  %16 = load ptr, ptr %15, align 8
  %17 = call noundef nonnull align 8 dereferenceable(32) ptr @_ZNSt7__cxx1112basic_stringIcSt11char_traitsIcESaIcEEpLERKS4_(ptr noundef nonnull align 8 dereferenceable(32) %16, ptr noundef nonnull align 8 dereferenceable(32) %14)
  ret void
}

; Function Attrs: mustprogress nounwind uwtable
define linkonce_odr hidden void @_ZNSt7__cxx1112basic_stringIcSt11char_traitsIcESaIcEEC2IS3_EEPKcRKS3_(ptr noundef nonnull align 8 dereferenceable(32) %0, ptr noundef %1, ptr noundef nonnull align 1 dereferenceable(1) %2) unnamed_addr #0 comdat align 2 {
  %4 = alloca ptr, align 8
  %5 = alloca ptr, align 8
  %6 = alloca ptr, align 8
  %7 = alloca ptr, align 8
  store ptr %0, ptr %4, align 8
  store ptr %1, ptr %5, align 8
  store ptr %2, ptr %6, align 8
  %8 = load ptr, ptr %4, align 8
  %9 = getelementptr inbounds nuw %"class.std::__cxx11::basic_string", ptr %8, i32 0, i32 0
  %10 = call noundef ptr @_ZNSt7__cxx1112basic_stringIcSt11char_traitsIcESaIcEE13_M_local_dataEv(ptr noundef nonnull align 8 dereferenceable(32) %8)
  %11 = load ptr, ptr %6, align 8
  call void @_ZNSt7__cxx1112basic_stringIcSt11char_traitsIcESaIcEE12_Alloc_hiderC1EPcRKS3_(ptr noundef nonnull align 8 dereferenceable(8) %9, ptr noundef %10, ptr noundef nonnull align 1 dereferenceable(1) %11)
  %12 = load ptr, ptr %5, align 8
  %13 = icmp eq ptr %12, null
  br i1 %13, label %14, label %15

14:                                               ; preds = %3
  call void @_ZSt19__throw_logic_errorPKc(ptr noundef @.str.66) #12
  unreachable

15:                                               ; preds = %3
  %16 = load ptr, ptr %5, align 8
  %17 = load ptr, ptr %5, align 8
  %18 = call noundef i64 @_ZNSt11char_traitsIcE6lengthEPKc(ptr noundef %17)
  %19 = getelementptr inbounds i8, ptr %16, i64 %18
  store ptr %19, ptr %7, align 8
  %20 = load ptr, ptr %5, align 8
  %21 = load ptr, ptr %7, align 8
  call void @_ZNSt7__cxx1112basic_stringIcSt11char_traitsIcESaIcEE12_M_constructIPKcEEvT_S8_St20forward_iterator_tag(ptr noundef nonnull align 8 dereferenceable(32) %8, ptr noundef %20, ptr noundef %21)
  ret void
}

; Function Attrs: mustprogress nounwind uwtable
define linkonce_odr hidden noundef zeroext i1 @_ZNK5clang5RISCV6Policy12isTUMUPolicyEv(ptr noundef nonnull align 4 dereferenceable(8) %0) #0 comdat align 2 {
  %2 = alloca ptr, align 8
  store ptr %0, ptr %2, align 8
  %3 = load ptr, ptr %2, align 8
  %4 = getelementptr inbounds nuw %"class.clang::RISCV::Policy", ptr %3, i32 0, i32 0
  %5 = load i32, ptr %4, align 4
  %6 = icmp eq i32 %5, 0
  br i1 %6, label %7, label %11

7:                                                ; preds = %1
  %8 = getelementptr inbounds nuw %"class.clang::RISCV::Policy", ptr %3, i32 0, i32 1
  %9 = load i32, ptr %8, align 4
  %10 = icmp eq i32 %9, 0
  br label %11

11:                                               ; preds = %7, %1
  %12 = phi i1 [ false, %1 ], [ %10, %7 ]
  ret i1 %12
}

; Function Attrs: mustprogress nounwind uwtable
define dso_local void @_ZN5clang5RISCV12RVVIntrinsic20updateNamesAndPolicyEbbRNSt7__cxx1112basic_stringIcSt11char_traitsIcESaIcEEES8_S8_RNS0_6PolicyEb(i1 noundef zeroext %0, i1 noundef zeroext %1, ptr noundef nonnull align 8 dereferenceable(32) %2, ptr noundef nonnull align 8 dereferenceable(32) %3, ptr noundef nonnull align 8 dereferenceable(32) %4, ptr noundef nonnull align 4 dereferenceable(8) %5, i1 noundef zeroext %6) #0 align 2 {
  %8 = alloca i8, align 1
  %9 = alloca i8, align 1
  %10 = alloca ptr, align 8
  %11 = alloca ptr, align 8
  %12 = alloca ptr, align 8
  %13 = alloca ptr, align 8
  %14 = alloca i8, align 1
  %15 = alloca %class.anon.59, align 8
  %16 = alloca %"class.std::__cxx11::basic_string", align 8
  %17 = alloca %"class.std::allocator", align 1
  %18 = alloca %"class.std::__cxx11::basic_string", align 8
  %19 = alloca %"class.std::allocator", align 1
  %20 = alloca %"class.std::__cxx11::basic_string", align 8
  %21 = alloca %"class.std::allocator", align 1
  %22 = alloca %"class.std::__cxx11::basic_string", align 8
  %23 = alloca %"class.std::allocator", align 1
  %24 = zext i1 %0 to i8
  store i8 %24, ptr %8, align 1
  %25 = zext i1 %1 to i8
  store i8 %25, ptr %9, align 1
  store ptr %2, ptr %10, align 8
  store ptr %3, ptr %11, align 8
  store ptr %4, ptr %12, align 8
  store ptr %5, ptr %13, align 8
  %26 = zext i1 %6 to i8
  store i8 %26, ptr %14, align 1
  %27 = getelementptr inbounds nuw %class.anon.59, ptr %15, i32 0, i32 0
  %28 = load ptr, ptr %10, align 8
  store ptr %28, ptr %27, align 8
  %29 = getelementptr inbounds nuw %class.anon.59, ptr %15, i32 0, i32 1
  %30 = load ptr, ptr %11, align 8
  store ptr %30, ptr %29, align 8
  %31 = getelementptr inbounds nuw %class.anon.59, ptr %15, i32 0, i32 2
  %32 = load ptr, ptr %12, align 8
  store ptr %32, ptr %31, align 8
  %33 = load i8, ptr %14, align 1
  %34 = trunc i8 %33 to i1
  br i1 %34, label %35, label %40

35:                                               ; preds = %7
  %36 = load ptr, ptr %10, align 8
  %37 = call noundef nonnull align 8 dereferenceable(32) ptr @_ZNSt7__cxx1112basic_stringIcSt11char_traitsIcESaIcEEpLEPKc(ptr noundef nonnull align 8 dereferenceable(32) %36, ptr noundef @.str.53)
  %38 = load ptr, ptr %11, align 8
  %39 = call noundef nonnull align 8 dereferenceable(32) ptr @_ZNSt7__cxx1112basic_stringIcSt11char_traitsIcESaIcEEpLEPKc(ptr noundef nonnull align 8 dereferenceable(32) %38, ptr noundef @.str.53)
  br label %40

40:                                               ; preds = %35, %7
  %41 = load i8, ptr %8, align 1
  %42 = trunc i8 %41 to i1
  br i1 %42, label %43, label %68

43:                                               ; preds = %40
  %44 = load ptr, ptr %13, align 8
  %45 = call noundef zeroext i1 @_ZNK5clang5RISCV6Policy12isTUMUPolicyEv(ptr noundef nonnull align 4 dereferenceable(8) %44)
  br i1 %45, label %46, label %47

46:                                               ; preds = %43
  call void @_ZNSaIcEC1Ev(ptr noundef nonnull align 1 dereferenceable(1) %17) #11
  call void @_ZNSt7__cxx1112basic_stringIcSt11char_traitsIcESaIcEEC2IS3_EEPKcRKS3_(ptr noundef nonnull align 8 dereferenceable(32) %16, ptr noundef @.str.54, ptr noundef nonnull align 1 dereferenceable(1) %17)
  call void @"_ZZN5clang5RISCV12RVVIntrinsic20updateNamesAndPolicyEbbRNSt7__cxx1112basic_stringIcSt11char_traitsIcESaIcEEES8_S8_RNS0_6PolicyEbENK3$_0clERKS7_"(ptr noundef nonnull align 8 dereferenceable(24) %15, ptr noundef nonnull align 8 dereferenceable(32) %16)
  call void @_ZNSt7__cxx1112basic_stringIcSt11char_traitsIcESaIcEED1Ev(ptr noundef nonnull align 8 dereferenceable(32) %16) #11
  call void @_ZNSaIcED1Ev(ptr noundef nonnull align 1 dereferenceable(1) %17) #11
  br label %67

47:                                               ; preds = %43
  %48 = load ptr, ptr %13, align 8
  %49 = call noundef zeroext i1 @_ZNK5clang5RISCV6Policy12isTUMAPolicyEv(ptr noundef nonnull align 4 dereferenceable(8) %48)
  br i1 %49, label %50, label %51

50:                                               ; preds = %47
  call void @_ZNSaIcEC1Ev(ptr noundef nonnull align 1 dereferenceable(1) %19) #11
  call void @_ZNSt7__cxx1112basic_stringIcSt11char_traitsIcESaIcEEC2IS3_EEPKcRKS3_(ptr noundef nonnull align 8 dereferenceable(32) %18, ptr noundef @.str.55, ptr noundef nonnull align 1 dereferenceable(1) %19)
  call void @"_ZZN5clang5RISCV12RVVIntrinsic20updateNamesAndPolicyEbbRNSt7__cxx1112basic_stringIcSt11char_traitsIcESaIcEEES8_S8_RNS0_6PolicyEbENK3$_0clERKS7_"(ptr noundef nonnull align 8 dereferenceable(24) %15, ptr noundef nonnull align 8 dereferenceable(32) %18)
  call void @_ZNSt7__cxx1112basic_stringIcSt11char_traitsIcESaIcEED1Ev(ptr noundef nonnull align 8 dereferenceable(32) %18) #11
  call void @_ZNSaIcED1Ev(ptr noundef nonnull align 1 dereferenceable(1) %19) #11
  br label %66

51:                                               ; preds = %47
  %52 = load ptr, ptr %13, align 8
  %53 = call noundef zeroext i1 @_ZNK5clang5RISCV6Policy12isTAMUPolicyEv(ptr noundef nonnull align 4 dereferenceable(8) %52)
  br i1 %53, label %54, label %55

54:                                               ; preds = %51
  call void @_ZNSaIcEC1Ev(ptr noundef nonnull align 1 dereferenceable(1) %21) #11
  call void @_ZNSt7__cxx1112basic_stringIcSt11char_traitsIcESaIcEEC2IS3_EEPKcRKS3_(ptr noundef nonnull align 8 dereferenceable(32) %20, ptr noundef @.str.56, ptr noundef nonnull align 1 dereferenceable(1) %21)
  call void @"_ZZN5clang5RISCV12RVVIntrinsic20updateNamesAndPolicyEbbRNSt7__cxx1112basic_stringIcSt11char_traitsIcESaIcEEES8_S8_RNS0_6PolicyEbENK3$_0clERKS7_"(ptr noundef nonnull align 8 dereferenceable(24) %15, ptr noundef nonnull align 8 dereferenceable(32) %20)
  call void @_ZNSt7__cxx1112basic_stringIcSt11char_traitsIcESaIcEED1Ev(ptr noundef nonnull align 8 dereferenceable(32) %20) #11
  call void @_ZNSaIcED1Ev(ptr noundef nonnull align 1 dereferenceable(1) %21) #11
  br label %65

55:                                               ; preds = %51
  %56 = load ptr, ptr %13, align 8
  %57 = call noundef zeroext i1 @_ZNK5clang5RISCV6Policy12isTAMAPolicyEv(ptr noundef nonnull align 4 dereferenceable(8) %56)
  br i1 %57, label %58, label %63

58:                                               ; preds = %55
  %59 = load ptr, ptr %10, align 8
  %60 = call noundef nonnull align 8 dereferenceable(32) ptr @_ZNSt7__cxx1112basic_stringIcSt11char_traitsIcESaIcEEpLEPKc(ptr noundef nonnull align 8 dereferenceable(32) %59, ptr noundef @.str.57)
  %61 = load ptr, ptr %11, align 8
  %62 = call noundef nonnull align 8 dereferenceable(32) ptr @_ZNSt7__cxx1112basic_stringIcSt11char_traitsIcESaIcEEpLEPKc(ptr noundef nonnull align 8 dereferenceable(32) %61, ptr noundef @.str.57)
  br label %64

63:                                               ; preds = %55
  unreachable

64:                                               ; preds = %58
  br label %65

65:                                               ; preds = %64, %54
  br label %66

66:                                               ; preds = %65, %50
  br label %67

67:                                               ; preds = %66, %46
  br label %78

68:                                               ; preds = %40
  %69 = load ptr, ptr %13, align 8
  %70 = call noundef zeroext i1 @_ZNK5clang5RISCV6Policy10isTUPolicyEv(ptr noundef nonnull align 4 dereferenceable(8) %69)
  br i1 %70, label %71, label %72

71:                                               ; preds = %68
  call void @_ZNSaIcEC1Ev(ptr noundef nonnull align 1 dereferenceable(1) %23) #11
  call void @_ZNSt7__cxx1112basic_stringIcSt11char_traitsIcESaIcEEC2IS3_EEPKcRKS3_(ptr noundef nonnull align 8 dereferenceable(32) %22, ptr noundef @.str.58, ptr noundef nonnull align 1 dereferenceable(1) %23)
  call void @"_ZZN5clang5RISCV12RVVIntrinsic20updateNamesAndPolicyEbbRNSt7__cxx1112basic_stringIcSt11char_traitsIcESaIcEEES8_S8_RNS0_6PolicyEbENK3$_0clERKS7_"(ptr noundef nonnull align 8 dereferenceable(24) %15, ptr noundef nonnull align 8 dereferenceable(32) %22)
  call void @_ZNSt7__cxx1112basic_stringIcSt11char_traitsIcESaIcEED1Ev(ptr noundef nonnull align 8 dereferenceable(32) %22) #11
  call void @_ZNSaIcED1Ev(ptr noundef nonnull align 1 dereferenceable(1) %23) #11
  br label %77

72:                                               ; preds = %68
  %73 = load ptr, ptr %13, align 8
  %74 = call noundef zeroext i1 @_ZNK5clang5RISCV6Policy10isTAPolicyEv(ptr noundef nonnull align 4 dereferenceable(8) %73)
  br i1 %74, label %75, label %76

75:                                               ; preds = %72
  br label %78

76:                                               ; preds = %72
  unreachable

77:                                               ; preds = %71
  br label %78

78:                                               ; preds = %77, %75, %67
  ret void
}